; Function Attrs: mustprogress uwtable
define void @_ZNK8facebook5velox4core11ProjectNode9serializeEv(ptr noalias sret(%"struct.folly::dynamic") align 8 %agg.result, ptr noundef nonnull align 8 dereferenceable(128) %this) unnamed_addr #0 align 2 personality ptr @__gxx_personality_v0 {
entry:
  %ref.tmp = alloca %"struct.folly::dynamic", align 8
  %ref.tmp6 = alloca %"struct.folly::dynamic", align 8
  tail call void @_ZNK8facebook5velox4core8PlanNode9serializeEv(ptr sret(%"struct.folly::dynamic") align 8 %agg.result, ptr noundef nonnull align 8 dereferenceable(40) %this)
  %names_ = getelementptr inbounds i8, ptr %this, i64 64
  invoke void @_ZN8facebook5velox13ISerializable9serializeINSt7__cxx1112basic_stringIcSt11char_traitsIcESaIcEEEEEN5folly7dynamicERKSt6vectorIT_SaISC_EE(ptr nonnull sret(%"struct.folly::dynamic") align 8 %ref.tmp, ptr noundef nonnull align 8 dereferenceable(24) %names_)
          to label %invoke.cont unwind label %lpad

invoke.cont:                                      ; preds = %entry
  %call = invoke noundef nonnull align 8 dereferenceable(40) ptr @_ZNR5folly7dynamicixENS_5RangeIPKcEE(ptr noundef nonnull align 8 dereferenceable(40) %agg.result, ptr nonnull @.str.34, ptr nonnull getelementptr inbounds ([6 x i8], ptr @.str.34, i64 0, i64 5))
          to label %invoke.cont4 unwind label %lpad2

invoke.cont4:                                     ; preds = %invoke.cont
  %call5 = call noundef nonnull align 8 dereferenceable(40) ptr @_ZN5folly7dynamicaSEOS0_(ptr noundef nonnull align 8 dereferenceable(40) %call, ptr noundef nonnull align 8 dereferenceable(40) %ref.tmp) #30
  call void @_ZN5folly7dynamic7destroyEv(ptr noundef nonnull align 8 dereferenceable(40) %ref.tmp) #30
  %projections_ = getelementptr inbounds i8, ptr %this, i64 88
  invoke void @_ZN8facebook5velox13ISerializable9serializeISt10shared_ptrIKNS0_4core10ITypedExprEEEEN5folly7dynamicERKSt6vectorIT_SaISB_EE(ptr nonnull sret(%"struct.folly::dynamic") align 8 %ref.tmp6, ptr noundef nonnull align 8 dereferenceable(24) %projections_)
          to label %invoke.cont7 unwind label %lpad

invoke.cont7:                                     ; preds = %invoke.cont4
  %call12 = invoke noundef nonnull align 8 dereferenceable(40) ptr @_ZNR5folly7dynamicixENS_5RangeIPKcEE(ptr noundef nonnull align 8 dereferenceable(40) %agg.result, ptr nonnull @.str.33, ptr nonnull getelementptr inbounds ([12 x i8], ptr @.str.33, i64 0, i64 11))
          to label %invoke.cont11 unwind label %lpad9

invoke.cont11:                                    ; preds = %invoke.cont7
  %call13 = call noundef nonnull align 8 dereferenceable(40) ptr @_ZN5folly7dynamicaSEOS0_(ptr noundef nonnull align 8 dereferenceable(40) %call12, ptr noundef nonnull align 8 dereferenceable(40) %ref.tmp6) #30
  call void @_ZN5folly7dynamic7destroyEv(ptr noundef nonnull align 8 dereferenceable(40) %ref.tmp6) #30
  ret void

lpad:                                             ; preds = %invoke.cont4, %entry
  %0 = landingpad { ptr, i32 }
          cleanup
  br label %ehcleanup

lpad2:                                            ; preds = %invoke.cont
  %1 = landingpad { ptr, i32 }
          cleanup
  call void @_ZN5folly7dynamic7destroyEv(ptr noundef nonnull align 8 dereferenceable(40) %ref.tmp) #30
  br label %ehcleanup

lpad9:                                            ; preds = %invoke.cont7
  %2 = landingpad { ptr, i32 }
          cleanup
  call void @_ZN5folly7dynamic7destroyEv(ptr noundef nonnull align 8 dereferenceable(40) %ref.tmp6) #30
  br label %ehcleanup

ehcleanup:                                        ; preds = %lpad9, %lpad2, %lpad
  %.pn = phi { ptr, i32 } [ %2, %lpad9 ], [ %0, %lpad ], [ %1, %lpad2 ]
  call void @_ZN5folly7dynamic7destroyEv(ptr noundef nonnull align 8 dereferenceable(40) %agg.result) #30
  resume { ptr, i32 } %.pn
}